; ModuleID = '11/832.c'
source_filename = "11/832.c"
target datalayout = "e-m:e-p270:32:32-p271:32:32-p272:64:64-i64:64-f80:128-n8:16:32:64-S128"
target triple = "x86_64-pc-linux-gnu"

@.str = private unnamed_addr constant [7 x i8] c"%d%d%d\00", align 1
@__const.main.f = private unnamed_addr constant [12 x i32] [i32 31, i32 28, i32 31, i32 30, i32 31, i32 30, i32 31, i32 31, i32 30, i32 31, i32 30, i32 31], align 16
@.str.1 = private unnamed_addr constant [3 x i8] c"%d\00", align 1

; Function Attrs: noinline nounwind uwtable
define dso_local i32 @main() #0 {
  %1 = alloca i32, align 4
  %2 = alloca i32, align 4
  %3 = alloca i32, align 4
  %4 = alloca i32, align 4
  %5 = alloca [12 x i32], align 16
  %6 = alloca i32, align 4
  %7 = alloca i32, align 4
  store i32 0, i32* %1, align 4
  %8 = call i32 (i8*, ...) @__isoc99_scanf(i8* getelementptr inbounds ([7 x i8], [7 x i8]* @.str, i64 0, i64 0), i32* %2, i32* %3, i32* %4)
  %9 = bitcast [12 x i32]* %5 to i8*
  call void @llvm.memcpy.p0i8.p0i8.i64(i8* align 16 %9, i8* align 16 bitcast ([12 x i32]* @__const.main.f to i8*), i64 48, i1 false)
  %10 = load i32, i32* %2, align 4
  %11 = srem i32 %10, 100
  %12 = icmp eq i32 %11, 0
  br i1 %12, label %13, label %39

13:                                               ; preds = %0
  %14 = load i32, i32* %2, align 4
  %15 = srem i32 %14, 400
  %16 = icmp eq i32 %15, 0
  br i1 %16, label %17, label %39

17:                                               ; preds = %13
  %18 = getelementptr inbounds [12 x i32], [12 x i32]* %5, i64 0, i64 1
  store i32 29, i32* %18, align 4
  store i32 0, i32* %6, align 4
  store i32 0, i32* %7, align 4
  br label %19

19:                                               ; preds = %31, %17
  %20 = load i32, i32* %3, align 4
  %21 = load i32, i32* %6, align 4
  %22 = add nsw i32 %21, 1
  %23 = icmp ne i32 %20, %22
  br i1 %23, label %24, label %34

24:                                               ; preds = %19
  %25 = load i32, i32* %7, align 4
  %26 = load i32, i32* %6, align 4
  %27 = sext i32 %26 to i64
  %28 = getelementptr inbounds [12 x i32], [12 x i32]* %5, i64 0, i64 %27
  %29 = load i32, i32* %28, align 4
  %30 = add nsw i32 %25, %29
  store i32 %30, i32* %7, align 4
  br label %31

31:                                               ; preds = %24
  %32 = load i32, i32* %6, align 4
  %33 = add nsw i32 %32, 1
  store i32 %33, i32* %6, align 4
  br label %19

34:                                               ; preds = %19
  %35 = load i32, i32* %7, align 4
  %36 = load i32, i32* %4, align 4
  %37 = add nsw i32 %35, %36
  %38 = call i32 (i8*, ...) @printf(i8* getelementptr inbounds ([3 x i8], [3 x i8]* @.str.1, i64 0, i64 0), i32 %37)
  br label %91

39:                                               ; preds = %13, %0
  %40 = load i32, i32* %2, align 4
  %41 = srem i32 %40, 100
  %42 = icmp ne i32 %41, 0
  br i1 %42, label %43, label %69

43:                                               ; preds = %39
  %44 = load i32, i32* %2, align 4
  %45 = srem i32 %44, 4
  %46 = icmp eq i32 %45, 0
  br i1 %46, label %47, label %69

47:                                               ; preds = %43
  %48 = getelementptr inbounds [12 x i32], [12 x i32]* %5, i64 0, i64 1
  store i32 29, i32* %48, align 4
  store i32 0, i32* %6, align 4
  store i32 0, i32* %7, align 4
  br label %49

49:                                               ; preds = %61, %47
  %50 = load i32, i32* %3, align 4
  %51 = load i32, i32* %6, align 4
  %52 = add nsw i32 %51, 1
  %53 = icmp ne i32 %50, %52
  br i1 %53, label %54, label %64

54:                                               ; preds = %49
  %55 = load i32, i32* %7, align 4
  %56 = load i32, i32* %6, align 4
  %57 = sext i32 %56 to i64
  %58 = getelementptr inbounds [12 x i32], [12 x i32]* %5, i64 0, i64 %57
  %59 = load i32, i32* %58, align 4
  %60 = add nsw i32 %55, %59
  store i32 %60, i32* %7, align 4
  br label %61

61:                                               ; preds = %54
  %62 = load i32, i32* %6, align 4
  %63 = add nsw i32 %62, 1
  store i32 %63, i32* %6, align 4
  br label %49

64:                                               ; preds = %49
  %65 = load i32, i32* %7, align 4
  %66 = load i32, i32* %4, align 4
  %67 = add nsw i32 %65, %66
  %68 = call i32 (i8*, ...) @printf(i8* getelementptr inbounds ([3 x i8], [3 x i8]* @.str.1, i64 0, i64 0), i32 %67)
  br label %90

69:                                               ; preds = %43, %39
  store i32 0, i32* %6, align 4
  store i32 0, i32* %7, align 4
  br label %70

70:                                               ; preds = %82, %69
  %71 = load i32, i32* %3, align 4
  %72 = load i32, i32* %6, align 4
  %73 = add nsw i32 %72, 1
  %74 = icmp ne i32 %71, %73
  br i1 %74, label %75, label %85

75:                                               ; preds = %70
  %76 = load i32, i32* %7, align 4
  %77 = load i32, i32* %6, align 4
  %78 = sext i32 %77 to i64
  %79 = getelementptr inbounds [12 x i32], [12 x i32]* %5, i64 0, i64 %78
  %80 = load i32, i32* %79, align 4
  %81 = add nsw i32 %76, %80
  store i32 %81, i32* %7, align 4
  br label %82

82:                                               ; preds = %75
  %83 = load i32, i32* %6, align 4
  %84 = add nsw i32 %83, 1
  store i32 %84, i32* %6, align 4
  br label %70

85:                                               ; preds = %70
  %86 = load i32, i32* %7, align 4
  %87 = load i32, i32* %4, align 4
  %88 = add nsw i32 %86, %87
  %89 = call i32 (i8*, ...) @printf(i8* getelementptr inbounds ([3 x i8], [3 x i8]* @.str.1, i64 0, i64 0), i32 %88)
  br label %90

90:                                               ; preds = %85, %64
  br label %91

91:                                               ; preds = %90, %34
  %92 = load i32, i32* %1, align 4
  ret i32 %92
}

declare dso_local i32 @__isoc99_scanf(i8*, ...) #1

; Function Attrs: argmemonly nounwind willreturn
declare void @llvm.memcpy.p0i8.p0i8.i64(i8* noalias nocapture writeonly, i8* noalias nocapture readonly, i64, i1 immarg) #2

declare dso_local i32 @printf(i8*, ...) #1


!llvm.module.flags = !{!0}
!llvm.ident = !{!1}

!0 = !{i32 1, !"wchar_size", i32 4}
!1 = !{!"clang version 10.0.0-4ubuntu1 "}
